; ModuleID = '23/863.c'
source_filename = "23/863.c"
target datalayout = "e-m:e-p270:32:32-p271:32:32-p272:64:64-i64:64-f80:128-n8:16:32:64-S128"
target triple = "x86_64-pc-linux-gnu"

@.str = private unnamed_addr constant [3 x i8] c"%s\00", align 1

; Function Attrs: noinline nounwind uwtable
define dso_local void @main() #0 {
  %1 = alloca i32, align 4
  %2 = alloca i32, align 4
  %3 = alloca i8, align 1
  %4 = alloca [50 x [15 x i8]], align 16
  store i32 0, i32* %1, align 4
  store i32 0, i32* %2, align 4
  %5 = bitcast [50 x [15 x i8]]* %4 to i8*
  call void @llvm.memset.p0i8.i64(i8* align 16 %5, i8 0, i64 750, i1 false)
  br label %6

6:                                                ; preds = %34, %0
  %7 = call i32 @getchar()
  %8 = trunc i32 %7 to i8
  store i8 %8, i8* %3, align 1
  %9 = sext i8 %8 to i32
  %10 = icmp ne i32 %9, 10
  br i1 %10, label %11, label %35

11:                                               ; preds = %6
  %12 = load i8, i8* %3, align 1
  %13 = sext i8 %12 to i32
  %14 = icmp ne i32 %13, 32
  br i1 %14, label %15, label %24

15:                                               ; preds = %11
  %16 = load i8, i8* %3, align 1
  %17 = load i32, i32* %1, align 4
  %18 = sext i32 %17 to i64
  %19 = getelementptr inbounds [50 x [15 x i8]], [50 x [15 x i8]]* %4, i64 0, i64 %18
  %20 = load i32, i32* %2, align 4
  %21 = add nsw i32 %20, 1
  store i32 %21, i32* %2, align 4
  %22 = sext i32 %20 to i64
  %23 = getelementptr inbounds [15 x i8], [15 x i8]* %19, i64 0, i64 %22
  store i8 %16, i8* %23, align 1
  br label %34

24:                                               ; preds = %11
  %25 = load i32, i32* %1, align 4
  %26 = sext i32 %25 to i64
  %27 = getelementptr inbounds [50 x [15 x i8]], [50 x [15 x i8]]* %4, i64 0, i64 %26
  %28 = load i32, i32* %2, align 4
  %29 = add nsw i32 %28, 1
  store i32 %29, i32* %2, align 4
  %30 = sext i32 %29 to i64
  %31 = getelementptr inbounds [15 x i8], [15 x i8]* %27, i64 0, i64 %30
  store i8 0, i8* %31, align 1
  %32 = load i32, i32* %1, align 4
  %33 = add nsw i32 %32, 1
  store i32 %33, i32* %1, align 4
  store i32 0, i32* %2, align 4
  br label %34

34:                                               ; preds = %24, %15
  br label %6

35:                                               ; preds = %6
  %36 = load i32, i32* %1, align 4
  store i32 %36, i32* %2, align 4
  br label %37

37:                                               ; preds = %51, %35
  %38 = load i32, i32* %2, align 4
  %39 = icmp sge i32 %38, 0
  br i1 %39, label %40, label %54

40:                                               ; preds = %37
  %41 = load i32, i32* %2, align 4
  %42 = sext i32 %41 to i64
  %43 = getelementptr inbounds [50 x [15 x i8]], [50 x [15 x i8]]* %4, i64 0, i64 %42
  %44 = getelementptr inbounds [15 x i8], [15 x i8]* %43, i64 0, i64 0
  %45 = call i32 (i8*, ...) @printf(i8* getelementptr inbounds ([3 x i8], [3 x i8]* @.str, i64 0, i64 0), i8* %44)
  %46 = load i32, i32* %2, align 4
  %47 = icmp ne i32 %46, 0
  br i1 %47, label %48, label %50

48:                                               ; preds = %40
  %49 = call i32 @putchar(i32 32)
  br label %50

50:                                               ; preds = %48, %40
  br label %51

51:                                               ; preds = %50
  %52 = load i32, i32* %2, align 4
  %53 = add nsw i32 %52, -1
  store i32 %53, i32* %2, align 4
  br label %37

54:                                               ; preds = %37
  ret void
}

; Function Attrs: argmemonly nounwind willreturn
declare void @llvm.memset.p0i8.i64(i8* nocapture writeonly, i8, i64, i1 immarg) #1

declare dso_local i32 @getchar() #2

declare dso_local i32 @printf(i8*, ...) #2

declare dso_local i32 @putchar(i32) #2


!llvm.module.flags = !{!0}
!llvm.ident = !{!1}

!0 = !{i32 1, !"wchar_size", i32 4}
!1 = !{!"clang version 10.0.0-4ubuntu1 "}
